target datalayout = "e-m:e-p270:32:32-p271:32:32-p272:64:64-i64:64-i128:128-f80:128-n8:16:32:64-S128"
target triple = "x86_64-unknown-linux-gnu"

; Function Attrs: mustprogress uwtable
define i32 @uspoof_check_75(ptr noundef %sc, ptr noundef %id, i32 noundef %length, ptr noundef %position, ptr noundef %status) #0 {
entry:
  %sc.addr = alloca ptr, align 8
  %id.addr = alloca ptr, align 8
  %length.addr = alloca i32, align 4
  %position.addr = alloca ptr, align 8
  %status.addr = alloca ptr, align 8
  store ptr %sc, ptr %sc.addr, align 8
  store ptr %id, ptr %id.addr, align 8
  store i32 %length, ptr %length.addr, align 4
  store ptr %position, ptr %position.addr, align 8
  store ptr %status, ptr %status.addr, align 8
  %0 = load ptr, ptr %position.addr, align 8
  %cmp = icmp ne ptr %0, null
  br i1 %cmp, label %if.then, label %if.end

if.then:                                          ; preds = %entry
  %1 = load ptr, ptr %position.addr, align 8
  store i32 0, ptr %1, align 4
  br label %if.end

if.end:                                           ; preds = %if.then, %entry
  %2 = load ptr, ptr %sc.addr, align 8
  %3 = load ptr, ptr %id.addr, align 8
  %4 = load i32, ptr %length.addr, align 4
  %5 = load ptr, ptr %status.addr, align 8
  %call = call i32 @uspoof_check2_75(ptr noundef %2, ptr noundef %3, i32 noundef %4, ptr noundef null, ptr noundef %5)
  ret i32 %call
}