; Function Attrs: mustprogress uwtable
define noundef i32 @uspoof_check_75(ptr noundef %sc, ptr noundef %id, i32 noundef %length, ptr noundef writeonly %position, ptr noundef %status) local_unnamed_addr #0 {
entry:
  %cmp.not = icmp eq ptr %position, null
  br i1 %cmp.not, label %if.end, label %if.then

if.then:                                          ; preds = %entry
  store i32 0, ptr %position, align 4
  br label %if.end

if.end:                                           ; preds = %if.then, %entry
  %call = tail call i32 @uspoof_check2_75(ptr noundef %sc, ptr noundef %id, i32 noundef %length, ptr noundef null, ptr noundef %status)
  ret i32 %call
}